target datalayout = "e-m:e-p270:32:32-p271:32:32-p272:64:64-i64:64-i128:128-f80:128-n8:16:32:64-S128"
target triple = "x86_64-pc-linux-gnu"

%struct.ssl_ecdh_ctx_st = type { ptr, ptr }

@.str = private unnamed_addr constant [118 x i8] c"generated/home/dtcxzyw/WorkSpace/Projects/compilers/llvm-opt-benchmark/bench/libquic/libquic/boringssl/ssl/ssl_ecdh.c\00", align 1

; Function Attrs: nounwind uwtable
define internal i32 @ssl_x25519_compute_secret(ptr noundef %0, ptr noundef %1, ptr noundef %2, ptr noundef %3, ptr noundef %4, i64 noundef %5) #0 {
  %7 = alloca i32, align 4
  %8 = alloca ptr, align 8
  %9 = alloca ptr, align 8
  %10 = alloca ptr, align 8
  %11 = alloca ptr, align 8
  %12 = alloca ptr, align 8
  %13 = alloca i64, align 8
  %14 = alloca ptr, align 8
  %15 = alloca i32, align 4
  store ptr %0, ptr %8, align 8, !tbaa !25
  store ptr %1, ptr %9, align 8, !tbaa !36
  store ptr %2, ptr %10, align 8, !tbaa !38
  store ptr %3, ptr %11, align 8, !tbaa !40
  store ptr %4, ptr %12, align 8, !tbaa !40
  store i64 %5, ptr %13, align 8, !tbaa !13
  %16 = load ptr, ptr %11, align 8, !tbaa !40
  store i8 80, ptr %16, align 1, !tbaa !52
  call void @llvm.lifetime.start.p0(i64 8, ptr %14) #5
  %17 = call noalias ptr @malloc(i64 noundef 32) #6
  store ptr %17, ptr %14, align 8, !tbaa !40
  %18 = load ptr, ptr %14, align 8, !tbaa !40
  %19 = icmp eq ptr %18, null
  br i1 %19, label %20, label %21

20:                                               ; preds = %6
  store i32 0, ptr %7, align 4
  store i32 1, ptr %15, align 4
  br label %39

21:                                               ; preds = %6
  %22 = load i64, ptr %13, align 8, !tbaa !13
  %23 = icmp ne i64 %22, 32
  br i1 %23, label %32, label %24

24:                                               ; preds = %21
  %25 = load ptr, ptr %14, align 8, !tbaa !40
  %26 = load ptr, ptr %8, align 8, !tbaa !25
  %27 = getelementptr inbounds nuw %struct.ssl_ecdh_ctx_st, ptr %26, i32 0, i32 1
  %28 = load ptr, ptr %27, align 8, !tbaa !30
  %29 = load ptr, ptr %12, align 8, !tbaa !40
  %30 = call i32 @X25519(ptr noundef %25, ptr noundef %28, ptr noundef %29)
  %31 = icmp ne i32 %30, 0
  br i1 %31, label %35, label %32

32:                                               ; preds = %24, %21
  %33 = load ptr, ptr %14, align 8, !tbaa !40
  call void @free(ptr noundef %33) #5
  %34 = load ptr, ptr %11, align 8, !tbaa !40
  store i8 50, ptr %34, align 1, !tbaa !52
  call void @ERR_put_error(i32 noundef 16, i32 noundef 0, i32 noundef 108, ptr noundef @.str, i32 noundef 193)
  store i32 0, ptr %7, align 4
  store i32 1, ptr %15, align 4
  br label %39

35:                                               ; preds = %24
  %36 = load ptr, ptr %14, align 8, !tbaa !40
  %37 = load ptr, ptr %9, align 8, !tbaa !36
  store ptr %36, ptr %37, align 8, !tbaa !40
  %38 = load ptr, ptr %10, align 8, !tbaa !38
  store i64 32, ptr %38, align 8, !tbaa !13
  store i32 1, ptr %7, align 4
  store i32 1, ptr %15, align 4
  br label %39

39:                                               ; preds = %35, %32, %20
  call void @llvm.lifetime.end.p0(i64 8, ptr %14) #5
  %40 = load i32, ptr %7, align 4
  ret i32 %40
}