; Function Attrs: nounwind uwtable
define internal range(i32 0, 2) i32 @ssl_x25519_compute_secret(ptr noundef readonly captures(none) %0, ptr noundef writeonly captures(none) %1, ptr noundef writeonly captures(none) %2, ptr noundef writeonly captures(none) initializes((0, 1)) %3, ptr noundef %4, i64 noundef %5) #3 {
  store i8 80, ptr %3, align 1, !tbaa !26
  %7 = tail call noalias dereferenceable_or_null(32) ptr @malloc(i64 noundef 32) #9
  %8 = icmp eq ptr %7, null
  br i1 %8, label %16, label %9

9:                                                ; preds = %6
  %.not = icmp eq i64 %5, 32
  br i1 %.not, label %10, label %14

10:                                               ; preds = %9
  %11 = getelementptr inbounds nuw i8, ptr %0, i64 8
  %12 = load ptr, ptr %11, align 8, !tbaa !22
  %13 = tail call i32 @X25519(ptr noundef nonnull %7, ptr noundef %12, ptr noundef %4) #8
  %.not12 = icmp eq i32 %13, 0
  br i1 %.not12, label %14, label %15

14:                                               ; preds = %10, %9
  tail call void @free(ptr noundef nonnull %7) #8
  store i8 50, ptr %3, align 1, !tbaa !26
  tail call void @ERR_put_error(i32 noundef 16, i32 noundef 0, i32 noundef 108, ptr noundef nonnull @.str, i32 noundef 193) #8
  br label %16

15:                                               ; preds = %10
  store ptr %7, ptr %1, align 8, !tbaa !27
  store i64 32, ptr %2, align 8, !tbaa !29
  br label %16

16:                                               ; preds = %6, %15, %14
  %.0 = phi i32 [ 0, %14 ], [ 1, %15 ], [ 0, %6 ]
  ret i32 %.0
}